target datalayout = "e-m:e-p270:32:32-p271:32:32-p272:64:64-i64:64-i128:128-f80:128-n8:16:32:64-S128"
target triple = "x86_64-pc-linux-gnu"

%struct.SDL_Rect = type { i32, i32, i32, i32 }

@.str = private unnamed_addr constant [26 x i8] c"Parameter '%s' is invalid\00", align 1
@.str.1 = private unnamed_addr constant [6 x i8] c"width\00", align 1
@.str.2 = private unnamed_addr constant [7 x i8] c"height\00", align 1
@.str.3 = private unnamed_addr constant [6 x i8] c"rects\00", align 1
@.str.4 = private unnamed_addr constant [5 x i8] c"span\00", align 1
@.str.5 = private unnamed_addr constant [9 x i8] c"numrects\00", align 1

; Function Attrs: nounwind uwtable
define hidden zeroext i1 @SDL_GetSpanEnclosingRect(i32 noundef %0, i32 noundef %1, i32 noundef %2, ptr noundef %3, ptr noundef %4) #0 {
  %6 = alloca i1, align 1
  %7 = alloca i32, align 4
  %8 = alloca i32, align 4
  %9 = alloca i32, align 4
  %10 = alloca ptr, align 8
  %11 = alloca ptr, align 8
  %12 = alloca i32, align 4
  %13 = alloca i32, align 4
  %14 = alloca i32, align 4
  %15 = alloca i32, align 4
  %16 = alloca i32, align 4
  %17 = alloca i32, align 4
  store i32 %0, ptr %7, align 4
  store i32 %1, ptr %8, align 4
  store i32 %2, ptr %9, align 4
  store ptr %3, ptr %10, align 8
  store ptr %4, ptr %11, align 8
  call void @llvm.lifetime.start.p0(i64 4, ptr %12) #6
  call void @llvm.lifetime.start.p0(i64 4, ptr %13) #6
  call void @llvm.lifetime.start.p0(i64 4, ptr %14) #6
  call void @llvm.lifetime.start.p0(i64 4, ptr %15) #6
  call void @llvm.lifetime.start.p0(i64 4, ptr %16) #6
  %18 = load i32, ptr %7, align 4
  %19 = icmp slt i32 %18, 1
  br i1 %19, label %20, label %22

20:                                               ; preds = %5
  %21 = call zeroext i1 (ptr, ...) @SDL_SetError_REAL(ptr noundef @.str, ptr noundef @.str.1)
  store i1 false, ptr %6, align 1
  store i32 1, ptr %17, align 4
  br label %113

22:                                               ; preds = %5
  %23 = load i32, ptr %8, align 4
  %24 = icmp slt i32 %23, 1
  br i1 %24, label %25, label %27

25:                                               ; preds = %22
  %26 = call zeroext i1 (ptr, ...) @SDL_SetError_REAL(ptr noundef @.str, ptr noundef @.str.2)
  store i1 false, ptr %6, align 1
  store i32 1, ptr %17, align 4
  br label %113

27:                                               ; preds = %22
  %28 = load ptr, ptr %10, align 8
  %29 = icmp ne ptr %28, null
  br i1 %29, label %32, label %30

30:                                               ; preds = %27
  %31 = call zeroext i1 (ptr, ...) @SDL_SetError_REAL(ptr noundef @.str, ptr noundef @.str.3)
  store i1 false, ptr %6, align 1
  store i32 1, ptr %17, align 4
  br label %113

32:                                               ; preds = %27
  %33 = load ptr, ptr %11, align 8
  %34 = icmp ne ptr %33, null
  br i1 %34, label %37, label %35

35:                                               ; preds = %32
  %36 = call zeroext i1 (ptr, ...) @SDL_SetError_REAL(ptr noundef @.str, ptr noundef @.str.4)
  store i1 false, ptr %6, align 1
  store i32 1, ptr %17, align 4
  br label %113

37:                                               ; preds = %32
  %38 = load i32, ptr %9, align 4
  %39 = icmp slt i32 %38, 1
  br i1 %39, label %40, label %42

40:                                               ; preds = %37
  %41 = call zeroext i1 (ptr, ...) @SDL_SetError_REAL(ptr noundef @.str, ptr noundef @.str.5)
  store i1 false, ptr %6, align 1
  store i32 1, ptr %17, align 4
  br label %113

42:                                               ; preds = %37
  br label %43

43:                                               ; preds = %42
  br label %44

44:                                               ; preds = %43
  br label %45

45:                                               ; preds = %44
  br label %46

46:                                               ; preds = %45
  %47 = load i32, ptr %8, align 4
  store i32 %47, ptr %13, align 4
  store i32 0, ptr %14, align 4
  store i32 0, ptr %12, align 4
  br label %48

48:                                               ; preds = %91, %46
  %49 = load i32, ptr %12, align 4
  %50 = load i32, ptr %9, align 4
  %51 = icmp slt i32 %49, %50
  br i1 %51, label %52, label %94

52:                                               ; preds = %48
  %53 = load ptr, ptr %10, align 8
  %54 = load i32, ptr %12, align 4
  %55 = sext i32 %54 to i64
  %56 = getelementptr inbounds %struct.SDL_Rect, ptr %53, i64 %55
  %57 = getelementptr inbounds nuw %struct.SDL_Rect, ptr %56, i32 0, i32 1
  %58 = load i32, ptr %57, align 4
  store i32 %58, ptr %15, align 4
  %59 = load i32, ptr %15, align 4
  %60 = load ptr, ptr %10, align 8
  %61 = load i32, ptr %12, align 4
  %62 = sext i32 %61 to i64
  %63 = getelementptr inbounds %struct.SDL_Rect, ptr %60, i64 %62
  %64 = getelementptr inbounds nuw %struct.SDL_Rect, ptr %63, i32 0, i32 3
  %65 = load i32, ptr %64, align 4
  %66 = add nsw i32 %59, %65
  store i32 %66, ptr %16, align 4
  %67 = load i32, ptr %15, align 4
  %68 = icmp slt i32 %67, 0
  br i1 %68, label %69, label %70

69:                                               ; preds = %52
  store i32 0, ptr %13, align 4
  br label %77

70:                                               ; preds = %52
  %71 = load i32, ptr %15, align 4
  %72 = load i32, ptr %13, align 4
  %73 = icmp slt i32 %71, %72
  br i1 %73, label %74, label %76

74:                                               ; preds = %70
  %75 = load i32, ptr %15, align 4
  store i32 %75, ptr %13, align 4
  br label %76

76:                                               ; preds = %74, %70
  br label %77

77:                                               ; preds = %76, %69
  %78 = load i32, ptr %16, align 4
  %79 = load i32, ptr %8, align 4
  %80 = icmp sgt i32 %78, %79
  br i1 %80, label %81, label %83

81:                                               ; preds = %77
  %82 = load i32, ptr %8, align 4
  store i32 %82, ptr %14, align 4
  br label %90

83:                                               ; preds = %77
  %84 = load i32, ptr %16, align 4
  %85 = load i32, ptr %14, align 4
  %86 = icmp sgt i32 %84, %85
  br i1 %86, label %87, label %89

87:                                               ; preds = %83
  %88 = load i32, ptr %16, align 4
  store i32 %88, ptr %14, align 4
  br label %89

89:                                               ; preds = %87, %83
  br label %90

90:                                               ; preds = %89, %81
  br label %91

91:                                               ; preds = %90
  %92 = load i32, ptr %12, align 4
  %93 = add nsw i32 %92, 1
  store i32 %93, ptr %12, align 4
  br label %48, !llvm.loop !3

94:                                               ; preds = %48
  %95 = load i32, ptr %14, align 4
  %96 = load i32, ptr %13, align 4
  %97 = icmp sgt i32 %95, %96
  br i1 %97, label %98, label %112

98:                                               ; preds = %94
  %99 = load ptr, ptr %11, align 8
  %100 = getelementptr inbounds nuw %struct.SDL_Rect, ptr %99, i32 0, i32 0
  store i32 0, ptr %100, align 4
  %101 = load i32, ptr %13, align 4
  %102 = load ptr, ptr %11, align 8
  %103 = getelementptr inbounds nuw %struct.SDL_Rect, ptr %102, i32 0, i32 1
  store i32 %101, ptr %103, align 4
  %104 = load i32, ptr %7, align 4
  %105 = load ptr, ptr %11, align 8
  %106 = getelementptr inbounds nuw %struct.SDL_Rect, ptr %105, i32 0, i32 2
  store i32 %104, ptr %106, align 4
  %107 = load i32, ptr %14, align 4
  %108 = load i32, ptr %13, align 4
  %109 = sub nsw i32 %107, %108
  %110 = load ptr, ptr %11, align 8
  %111 = getelementptr inbounds nuw %struct.SDL_Rect, ptr %110, i32 0, i32 3
  store i32 %109, ptr %111, align 4
  store i1 true, ptr %6, align 1
  store i32 1, ptr %17, align 4
  br label %113

112:                                              ; preds = %94
  store i1 false, ptr %6, align 1
  store i32 1, ptr %17, align 4
  br label %113

113:                                              ; preds = %112, %98, %40, %35, %30, %25, %20
  call void @llvm.lifetime.end.p0(i64 4, ptr %16) #6
  call void @llvm.lifetime.end.p0(i64 4, ptr %15) #6
  call void @llvm.lifetime.end.p0(i64 4, ptr %14) #6
  call void @llvm.lifetime.end.p0(i64 4, ptr %13) #6
  call void @llvm.lifetime.end.p0(i64 4, ptr %12) #6
  %114 = load i1, ptr %6, align 1
  ret i1 %114
}