; Function Attrs: nounwind uwtable
define hidden noundef zeroext i1 @SDL_GetSpanEnclosingRect(i32 noundef %0, i32 noundef %1, i32 noundef %2, ptr noundef readonly captures(address_is_null) %3, ptr noundef writeonly captures(address_is_null) %4) local_unnamed_addr #0 {
  %6 = icmp slt i32 %0, 1
  br i1 %6, label %7, label %9

7:                                                ; preds = %5
  %8 = tail call zeroext i1 (ptr, ...) @SDL_SetError_REAL(ptr noundef nonnull @.str, ptr noundef nonnull @.str.1) #5
  br label %38

9:                                                ; preds = %5
  %10 = icmp slt i32 %1, 1
  br i1 %10, label %11, label %13

11:                                               ; preds = %9
  %12 = tail call zeroext i1 (ptr, ...) @SDL_SetError_REAL(ptr noundef nonnull @.str, ptr noundef nonnull @.str.2) #5
  br label %38

13:                                               ; preds = %9
  %.not = icmp eq ptr %3, null
  br i1 %.not, label %14, label %16

14:                                               ; preds = %13
  %15 = tail call zeroext i1 (ptr, ...) @SDL_SetError_REAL(ptr noundef nonnull @.str, ptr noundef nonnull @.str.3) #5
  br label %38

16:                                               ; preds = %13
  %.not45 = icmp eq ptr %4, null
  br i1 %.not45, label %17, label %19

17:                                               ; preds = %16
  %18 = tail call zeroext i1 (ptr, ...) @SDL_SetError_REAL(ptr noundef nonnull @.str, ptr noundef nonnull @.str.4) #5
  br label %38

19:                                               ; preds = %16
  %20 = icmp slt i32 %2, 1
  br i1 %20, label %21, label %.preheader.preheader

.preheader.preheader:                             ; preds = %19
  %wide.trip.count = zext nneg i32 %2 to i64
  br label %.preheader

21:                                               ; preds = %19
  %22 = tail call zeroext i1 (ptr, ...) @SDL_SetError_REAL(ptr noundef nonnull @.str, ptr noundef nonnull @.str.5) #5
  br label %38

.preheader:                                       ; preds = %.preheader.preheader, %.preheader
  %indvars.iv = phi i64 [ 0, %.preheader.preheader ], [ %indvars.iv.next, %.preheader ]
  %.03548 = phi i32 [ 0, %.preheader.preheader ], [ %.1, %.preheader ]
  %.03647 = phi i32 [ %1, %.preheader.preheader ], [ %.137, %.preheader ]
  %23 = getelementptr inbounds nuw %struct.SDL_Rect, ptr %3, i64 %indvars.iv
  %24 = getelementptr inbounds nuw i8, ptr %23, i64 4
  %25 = load i32, ptr %24, align 4
  %26 = getelementptr inbounds nuw i8, ptr %23, i64 12
  %27 = load i32, ptr %26, align 4
  %28 = add nsw i32 %27, %25
  %29 = icmp slt i32 %25, 0
  %spec.select = tail call i32 @llvm.smin.i32(i32 %25, i32 %.03647)
  %.137 = select i1 %29, i32 0, i32 %spec.select
  %30 = icmp sgt i32 %28, %1
  %spec.select46 = tail call i32 @llvm.smax.i32(i32 %28, i32 %.03548)
  %.1 = select i1 %30, i32 %1, i32 %spec.select46
  %indvars.iv.next = add nuw nsw i64 %indvars.iv, 1
  %exitcond.not = icmp eq i64 %indvars.iv.next, %wide.trip.count
  br i1 %exitcond.not, label %31, label %.preheader, !llvm.loop !3

31:                                               ; preds = %.preheader
  %32 = icmp sgt i32 %.1, %.137
  br i1 %32, label %33, label %38

33:                                               ; preds = %31
  store i32 0, ptr %4, align 4
  %34 = getelementptr inbounds nuw i8, ptr %4, i64 4
  store i32 %.137, ptr %34, align 4
  %35 = getelementptr inbounds nuw i8, ptr %4, i64 8
  store i32 %0, ptr %35, align 4
  %36 = sub nsw i32 %.1, %.137
  %37 = getelementptr inbounds nuw i8, ptr %4, i64 12
  store i32 %36, ptr %37, align 4
  br label %38

38:                                               ; preds = %31, %33, %21, %17, %14, %11, %7
  %.0 = phi i1 [ false, %7 ], [ false, %11 ], [ false, %21 ], [ true, %33 ], [ false, %17 ], [ false, %14 ], [ false, %31 ]
  ret i1 %.0
}